; Function Attrs: nounwind uwtable
define dso_local i32 @nth_midxed_pack_int_id(ptr noundef readonly %0, i32 noundef %1) local_unnamed_addr #1 {
  %.not18.i = icmp eq ptr %0, null
  br i1 %.not18.i, label %.critedge15.i, label %.lr.ph.i

.lr.ph.i:                                         ; preds = %2, %6
  %.019.i = phi ptr [ %.0.i, %6 ], [ %0, %2 ]
  %3 = getelementptr inbounds nuw i8, ptr %.019.i, i64 176
  %4 = load i32, ptr %3, align 8, !tbaa !41
  %5 = icmp ult i32 %1, %4
  br i1 %5, label %6, label %.critedge.i

6:                                                ; preds = %.lr.ph.i
  %7 = getelementptr inbounds nuw i8, ptr %.019.i, i64 168
  %.0.i = load ptr, ptr %7, align 8, !tbaa !44
  %.not.i = icmp eq ptr %.0.i, null
  br i1 %.not.i, label %.critedge15.i, label %.lr.ph.i, !llvm.loop !76

.critedge15.i:                                    ; preds = %6, %2
  tail call void (ptr, i32, ptr, ...) @BUG_fl(ptr noundef nonnull @.str.43, i32 noundef 424, ptr noundef nonnull @.str.64, i32 noundef %1) #24
  unreachable

.critedge.i:                                      ; preds = %.lr.ph.i
  %8 = getelementptr inbounds nuw i8, ptr %.019.i, i64 60
  %9 = load i32, ptr %8, align 4, !tbaa !41
  %10 = add i32 %9, %4
  %.not14.i = icmp ult i32 %1, %10
  br i1 %.not14.i, label %midx_for_object.exit, label %11

11:                                               ; preds = %.critedge.i
  %12 = tail call fastcc ptr @_(ptr noundef nonnull @.str.65)
  tail call void (ptr, ...) @die(ptr noundef %12) #24
  unreachable

midx_for_object.exit:                             ; preds = %.critedge.i
  %13 = sub i32 %1, %4
  %14 = getelementptr inbounds nuw i8, ptr %.019.i, i64 180
  %15 = load i32, ptr %14, align 4, !tbaa !41
  %16 = getelementptr inbounds nuw i8, ptr %.019.i, i64 128
  %17 = load ptr, ptr %16, align 8, !tbaa !4
  %18 = zext i32 %13 to i64
  %19 = shl nuw nsw i64 %18, 3
  %20 = getelementptr inbounds nuw i8, ptr %17, i64 %19
  %21 = load i8, ptr %20, align 1, !tbaa !43
  %22 = zext i8 %21 to i32
  %23 = shl nuw i32 %22, 24
  %24 = getelementptr inbounds nuw i8, ptr %20, i64 1
  %25 = load i8, ptr %24, align 1, !tbaa !43
  %26 = zext i8 %25 to i32
  %27 = shl nuw nsw i32 %26, 16
  %28 = or disjoint i32 %27, %23
  %29 = getelementptr inbounds nuw i8, ptr %20, i64 2
  %30 = load i8, ptr %29, align 1, !tbaa !43
  %31 = zext i8 %30 to i32
  %32 = shl nuw nsw i32 %31, 8
  %33 = or disjoint i32 %28, %32
  %34 = getelementptr inbounds nuw i8, ptr %20, i64 3
  %35 = load i8, ptr %34, align 1, !tbaa !43
  %36 = zext i8 %35 to i32
  %37 = or disjoint i32 %33, %36
  %38 = add i32 %37, %15
  ret i32 %38
}